target datalayout = "e-m:e-p270:32:32-p271:32:32-p272:64:64-i64:64-i128:128-f80:128-n8:16:32:64-S128"
target triple = "x86_64-pc-linux-gnu"

%struct.resourcemodulestate = type { ptr }

; Function Attrs: inlinehint nounwind uwtable
define internal void @Py_DECREF(ptr noundef %0) #5 {
  %2 = alloca ptr, align 8
  store ptr %0, ptr %2, align 8, !tbaa !3
  %3 = load ptr, ptr %2, align 8, !tbaa !3
  call void @_Py_DecRef(ptr noundef %3)
  ret void
}

; Function Attrs: inlinehint nounwind uwtable
define internal ptr @get_resource_state(ptr noundef %0) #5 {
  %2 = alloca ptr, align 8
  %3 = alloca ptr, align 8
  store ptr %0, ptr %2, align 8, !tbaa !3
  call void @llvm.lifetime.start.p0(i64 8, ptr %3) #7
  %4 = load ptr, ptr %2, align 8, !tbaa !3
  %5 = call ptr @PyModule_GetState(ptr noundef %4)
  store ptr %5, ptr %3, align 8, !tbaa !8
  %6 = load ptr, ptr %3, align 8, !tbaa !8
  call void @llvm.lifetime.end.p0(i64 8, ptr %3) #7
  ret ptr %6
}

; Function Attrs: nounwind uwtable
define internal i32 @resourcemodule_clear(ptr noundef %0) #0 {
  %2 = alloca ptr, align 8
  %3 = alloca ptr, align 8
  %4 = alloca ptr, align 8
  store ptr %0, ptr %2, align 8, !tbaa !3
  br label %5

5:                                                ; preds = %1
  call void @llvm.lifetime.start.p0(i64 8, ptr %3) #7
  %6 = load ptr, ptr %2, align 8, !tbaa !3
  %7 = call ptr @get_resource_state(ptr noundef %6)
  %8 = getelementptr inbounds nuw %struct.resourcemodulestate, ptr %7, i32 0, i32 0
  store ptr %8, ptr %3, align 8, !tbaa !14
  call void @llvm.lifetime.start.p0(i64 8, ptr %4) #7
  %9 = load ptr, ptr %3, align 8, !tbaa !14
  %10 = load ptr, ptr %9, align 8, !tbaa !16
  store ptr %10, ptr %4, align 8, !tbaa !16
  %11 = load ptr, ptr %4, align 8, !tbaa !16
  %12 = icmp ne ptr %11, null
  br i1 %12, label %13, label %16

13:                                               ; preds = %5
  %14 = load ptr, ptr %3, align 8, !tbaa !14
  store ptr null, ptr %14, align 8, !tbaa !16
  %15 = load ptr, ptr %4, align 8, !tbaa !16
  call void @Py_DECREF(ptr noundef %15)
  br label %16

16:                                               ; preds = %13, %5
  call void @llvm.lifetime.end.p0(i64 8, ptr %4) #7
  call void @llvm.lifetime.end.p0(i64 8, ptr %3) #7
  br label %17

17:                                               ; preds = %16
  ret i32 0
}